; Function Attrs: uwtable
define void @_ZTv0_n56_NK5osgeo4proj9operation14Transformation7inverseEv(ptr dead_on_unwind noalias nocapture writable writeonly sret(%"class.dropbox::oxygen::nn.73") align 8 %0, ptr noundef %1) unnamed_addr #7 align 2 personality ptr @__gxx_personality_v0 {
  %3 = alloca %"class.dropbox::oxygen::nn.68", align 8
  %4 = load ptr, ptr %1, align 8
  %5 = getelementptr inbounds i8, ptr %4, i64 -56
  %6 = load i64, ptr %5, align 8
  %7 = getelementptr inbounds i8, ptr %1, i64 %6
  tail call void @llvm.experimental.noalias.scope.decl(metadata !36)
  call void @llvm.lifetime.start.p0(i64 16, ptr nonnull %3)
  call void @_ZNK5osgeo4proj9operation14Transformation23inverseAsTransformationEv(ptr dead_on_unwind nonnull writable sret(%"class.dropbox::oxygen::nn.68") align 8 %3, ptr noundef nonnull align 8 dereferenceable(24) %7), !noalias !36
  %8 = load ptr, ptr %3, align 8, !noalias !36
  %9 = icmp eq ptr %8, null
  br i1 %9, label %_ZNK5osgeo4proj9operation14Transformation7inverseEv.exit, label %10

10:                                               ; preds = %2
  %11 = load ptr, ptr %8, align 8, !noalias !36
  %12 = getelementptr i8, ptr %11, i64 -24
  %13 = load i64, ptr %12, align 8, !noalias !36
  %14 = getelementptr inbounds i8, ptr %8, i64 %13
  br label %_ZNK5osgeo4proj9operation14Transformation7inverseEv.exit

_ZNK5osgeo4proj9operation14Transformation7inverseEv.exit: ; preds = %2, %10
  %15 = phi ptr [ %14, %10 ], [ null, %2 ]
  store ptr %15, ptr %0, align 8, !alias.scope !36
  %16 = getelementptr inbounds i8, ptr %0, i64 8
  %17 = getelementptr inbounds i8, ptr %3, i64 8
  %18 = load ptr, ptr %17, align 8, !noalias !36
  store ptr %18, ptr %16, align 8, !alias.scope !36
  call void @llvm.lifetime.end.p0(i64 16, ptr nonnull %3)
  ret void
}